target datalayout = "e-m:e-p270:32:32-p271:32:32-p272:64:64-i64:64-i128:128-f80:128-n8:16:32:64-S128"
target triple = "x86_64-pc-linux-gnu"

%struct.FT_FaceRec_ = type { i64, i64, i64, i64, i64, ptr, ptr, i32, ptr, i32, ptr, %struct.FT_Generic_, %struct.FT_BBox_, i16, i16, i16, i16, i16, i16, i16, i16, ptr, ptr, ptr, ptr, ptr, ptr, %struct.FT_ListRec_, %struct.FT_Generic_, ptr, ptr }
%struct.FT_BBox_ = type { i64, i64, i64, i64 }
%struct.FT_ListRec_ = type { ptr, ptr }
%struct.FT_Generic_ = type { ptr, ptr }
%struct.TT_FaceRec_ = type { %struct.FT_FaceRec_, %struct.TTC_HeaderRec_, i64, i16, ptr, %struct.TT_Header_, %struct.TT_HoriHeader_, %struct.TT_MaxProfile_, i8, %struct.TT_VertHeader_, i16, %struct.TT_NameTableRec_, %struct.TT_OS2_, %struct.TT_Postscript_, ptr, i64, ptr, ptr, ptr, ptr, ptr, ptr, ptr, ptr, ptr, ptr, ptr, ptr, %struct.TT_Gasp_, %struct.TT_PCLT_, i64, ptr, %struct.TT_Post_NamesRec_, %struct.FT_Palette_Data_, i16, ptr, i8, %struct.FT_Color_, i64, ptr, i64, ptr, i64, ptr, ptr, %struct.FT_Generic_, ptr, i64, i64, i8, i8, ptr, i32, ptr, i32, i32, ptr, i64, i64, i64, ptr, ptr, i64, i32, i64, ptr, ptr, i64, i32, i32, ptr, ptr, i64, i32, i32, i32, %struct.TT_BDFRec_, i64, i64, i64, i64, ptr, ptr, ptr }
%struct.TTC_HeaderRec_ = type { i64, i64, i64, ptr }
%struct.TT_Header_ = type { i64, i64, i64, i64, i16, i16, [2 x i64], [2 x i64], i16, i16, i16, i16, i16, i16, i16, i16, i16 }
%struct.TT_HoriHeader_ = type { i64, i16, i16, i16, i16, i16, i16, i16, i16, i16, i16, [4 x i16], i16, i16, ptr, ptr }
%struct.TT_MaxProfile_ = type { i64, i16, i16, i16, i16, i16, i16, i16, i16, i16, i16, i16, i16, i16, i16 }
%struct.TT_VertHeader_ = type { i64, i16, i16, i16, i16, i16, i16, i16, i16, i16, i16, [4 x i16], i16, i16, ptr, ptr }
%struct.TT_NameTableRec_ = type { i16, i32, i32, ptr, i32, ptr, ptr }
%struct.TT_OS2_ = type { i16, i16, i16, i16, i16, i16, i16, i16, i16, i16, i16, i16, i16, i16, i16, i16, [10 x i8], i64, i64, i64, i64, [4 x i8], i16, i16, i16, i16, i16, i16, i16, i16, i64, i64, i16, i16, i16, i16, i16, i16, i16 }
%struct.TT_Postscript_ = type { i64, i64, i16, i16, i64, i64, i64, i64, i64 }
%struct.TT_Gasp_ = type { i16, i16, ptr }
%struct.TT_PCLT_ = type { i64, i64, i16, i16, i16, i16, i16, i16, [16 x i8], [8 x i8], [6 x i8], i8, i8, i8, i8 }
%struct.TT_Post_NamesRec_ = type { i8, i16, i16, ptr, ptr }
%struct.FT_Palette_Data_ = type { i16, ptr, ptr, i16, ptr }
%struct.FT_Color_ = type { i8, i8, i8, i8 }
%struct.TT_BDFRec_ = type { ptr, ptr, ptr, i64, i32, i8 }
%struct.TT_TableRec_ = type { i64, i64, i64, i64 }

; Function Attrs: nounwind uwtable
define internal i32 @sfnt_table_info(ptr noundef %0, i32 noundef %1, ptr noundef %2, ptr noundef %3, ptr noundef %4) #0 {
  %6 = alloca i32, align 4
  %7 = alloca ptr, align 8
  %8 = alloca i32, align 4
  %9 = alloca ptr, align 8
  %10 = alloca ptr, align 8
  %11 = alloca ptr, align 8
  %12 = alloca ptr, align 8
  store ptr %0, ptr %7, align 8
  store i32 %1, ptr %8, align 4
  store ptr %2, ptr %9, align 8
  store ptr %3, ptr %10, align 8
  store ptr %4, ptr %11, align 8
  %13 = load ptr, ptr %7, align 8
  store ptr %13, ptr %12, align 8
  %14 = load ptr, ptr %10, align 8
  %15 = icmp ne ptr %14, null
  br i1 %15, label %16, label %19

16:                                               ; preds = %5
  %17 = load ptr, ptr %11, align 8
  %18 = icmp ne ptr %17, null
  br i1 %18, label %20, label %19

19:                                               ; preds = %16, %5
  store i32 6, ptr %6, align 4
  br label %66

20:                                               ; preds = %16
  %21 = load ptr, ptr %9, align 8
  %22 = icmp ne ptr %21, null
  br i1 %22, label %29, label %23

23:                                               ; preds = %20
  %24 = load ptr, ptr %12, align 8
  %25 = getelementptr inbounds %struct.TT_FaceRec_, ptr %24, i32 0, i32 3
  %26 = load i16, ptr %25, align 8
  %27 = zext i16 %26 to i64
  %28 = load ptr, ptr %11, align 8
  store i64 %27, ptr %28, align 8
  br label %65

29:                                               ; preds = %20
  %30 = load i32, ptr %8, align 4
  %31 = load ptr, ptr %12, align 8
  %32 = getelementptr inbounds %struct.TT_FaceRec_, ptr %31, i32 0, i32 3
  %33 = load i16, ptr %32, align 8
  %34 = zext i16 %33 to i32
  %35 = icmp uge i32 %30, %34
  br i1 %35, label %36, label %37

36:                                               ; preds = %29
  store i32 142, ptr %6, align 4
  br label %66

37:                                               ; preds = %29
  %38 = load ptr, ptr %12, align 8
  %39 = getelementptr inbounds %struct.TT_FaceRec_, ptr %38, i32 0, i32 4
  %40 = load ptr, ptr %39, align 8
  %41 = load i32, ptr %8, align 4
  %42 = zext i32 %41 to i64
  %43 = getelementptr inbounds %struct.TT_TableRec_, ptr %40, i64 %42
  %44 = getelementptr inbounds %struct.TT_TableRec_, ptr %43, i32 0, i32 0
  %45 = load i64, ptr %44, align 8
  %46 = load ptr, ptr %9, align 8
  store i64 %45, ptr %46, align 8
  %47 = load ptr, ptr %12, align 8
  %48 = getelementptr inbounds %struct.TT_FaceRec_, ptr %47, i32 0, i32 4
  %49 = load ptr, ptr %48, align 8
  %50 = load i32, ptr %8, align 4
  %51 = zext i32 %50 to i64
  %52 = getelementptr inbounds %struct.TT_TableRec_, ptr %49, i64 %51
  %53 = getelementptr inbounds %struct.TT_TableRec_, ptr %52, i32 0, i32 2
  %54 = load i64, ptr %53, align 8
  %55 = load ptr, ptr %10, align 8
  store i64 %54, ptr %55, align 8
  %56 = load ptr, ptr %12, align 8
  %57 = getelementptr inbounds %struct.TT_FaceRec_, ptr %56, i32 0, i32 4
  %58 = load ptr, ptr %57, align 8
  %59 = load i32, ptr %8, align 4
  %60 = zext i32 %59 to i64
  %61 = getelementptr inbounds %struct.TT_TableRec_, ptr %58, i64 %60
  %62 = getelementptr inbounds %struct.TT_TableRec_, ptr %61, i32 0, i32 3
  %63 = load i64, ptr %62, align 8
  %64 = load ptr, ptr %11, align 8
  store i64 %63, ptr %64, align 8
  br label %65

65:                                               ; preds = %37, %23
  store i32 0, ptr %6, align 4
  br label %66

66:                                               ; preds = %65, %36, %19
  %67 = load i32, ptr %6, align 4
  ret i32 %67
}