; Function Attrs: mustprogress nofree norecurse nosync nounwind willreturn memory(read, argmem: readwrite, inaccessiblemem: none) uwtable
define internal range(i32 0, 143) i32 @sfnt_table_info(ptr nocapture noundef readonly %0, i32 noundef %1, ptr noundef writeonly %2, ptr noundef writeonly %3, ptr noundef writeonly %4) #4 {
  %6 = icmp ne ptr %3, null
  %7 = icmp ne ptr %4, null
  %or.cond = and i1 %6, %7
  br i1 %or.cond, label %8, label %28

8:                                                ; preds = %5
  %.not = icmp eq ptr %2, null
  %9 = getelementptr inbounds i8, ptr %0, i64 288
  %10 = load i16, ptr %9, align 8
  br i1 %.not, label %11, label %13

11:                                               ; preds = %8
  %12 = zext i16 %10 to i64
  br label %27

13:                                               ; preds = %8
  %14 = zext i16 %10 to i32
  %.not22 = icmp ugt i32 %14, %1
  br i1 %.not22, label %15, label %28

15:                                               ; preds = %13
  %16 = getelementptr inbounds i8, ptr %0, i64 296
  %17 = load ptr, ptr %16, align 8
  %18 = zext nneg i32 %1 to i64
  %19 = getelementptr inbounds %struct.TT_TableRec_, ptr %17, i64 %18
  %20 = load i64, ptr %19, align 8
  store i64 %20, ptr %2, align 8
  %21 = load ptr, ptr %16, align 8
  %22 = getelementptr inbounds %struct.TT_TableRec_, ptr %21, i64 %18, i32 2
  %23 = load i64, ptr %22, align 8
  store i64 %23, ptr %3, align 8
  %24 = load ptr, ptr %16, align 8
  %25 = getelementptr inbounds %struct.TT_TableRec_, ptr %24, i64 %18, i32 3
  %26 = load i64, ptr %25, align 8
  br label %27

27:                                               ; preds = %15, %11
  %storemerge = phi i64 [ %12, %11 ], [ %26, %15 ]
  store i64 %storemerge, ptr %4, align 8
  br label %28

28:                                               ; preds = %13, %5, %27
  %.0 = phi i32 [ 0, %27 ], [ 6, %5 ], [ 142, %13 ]
  ret i32 %.0
}